; Function Attrs: mustprogress uwtable
define noundef ptr @grpc_tls_server_credentials_create(ptr noundef %options) local_unnamed_addr #6 personality ptr @__gxx_personality_v0 {
entry:
  %agg.tmp = alloca %"class.grpc_core::RefCountedPtr", align 8
  %call = tail call fastcc noundef zeroext i1 @_ZN12_GLOBAL__N_127CredentialOptionSanityCheckEP28grpc_tls_credentials_optionsb(ptr noundef %options, i1 noundef zeroext false)
  br i1 %call, label %if.end, label %return

if.end:                                           ; preds = %entry
  %call1 = tail call noalias noundef nonnull dereferenceable(48) ptr @_Znwm(i64 noundef 48) #19
  store ptr %options, ptr %agg.tmp, align 8
  invoke void @_ZN20TlsServerCredentialsC1EN9grpc_core13RefCountedPtrI28grpc_tls_credentials_optionsEE(ptr noundef nonnull align 8 dereferenceable(48) %call1, ptr noundef nonnull %agg.tmp)
          to label %invoke.cont3 unwind label %lpad2

invoke.cont3:                                     ; preds = %if.end
  %0 = load ptr, ptr %agg.tmp, align 8
  %cmp.not.i = icmp eq ptr %0, null
  br i1 %cmp.not.i, label %return, label %if.then.i

if.then.i:                                        ; preds = %invoke.cont3
  %refs_.i.i = getelementptr inbounds i8, ptr %0, i64 8
  %1 = atomicrmw sub ptr %refs_.i.i, i64 1 acq_rel, align 8
  %cmp.i.i.i = icmp eq i64 %1, 1
  br i1 %cmp.i.i.i, label %if.then.i.i, label %return

if.then.i.i:                                      ; preds = %if.then.i
  %vtable.i.i.i = load ptr, ptr %0, align 8
  %vfn.i.i.i = getelementptr inbounds i8, ptr %vtable.i.i.i, i64 8
  %2 = load ptr, ptr %vfn.i.i.i, align 8
  call void %2(ptr noundef nonnull align 8 dereferenceable(217) %0) #17
  br label %return

lpad2:                                            ; preds = %if.end
  %3 = landingpad { ptr, i32 }
          cleanup
  %4 = load ptr, ptr %agg.tmp, align 8
  %cmp.not.i2 = icmp eq ptr %4, null
  br i1 %cmp.not.i2, label %_ZN9grpc_core13RefCountedPtrI28grpc_tls_credentials_optionsED2Ev.exit9, label %if.then.i3

if.then.i3:                                       ; preds = %lpad2
  %refs_.i.i4 = getelementptr inbounds i8, ptr %4, i64 8
  %5 = atomicrmw sub ptr %refs_.i.i4, i64 1 acq_rel, align 8
  %cmp.i.i.i5 = icmp eq i64 %5, 1
  br i1 %cmp.i.i.i5, label %if.then.i.i6, label %_ZN9grpc_core13RefCountedPtrI28grpc_tls_credentials_optionsED2Ev.exit9

if.then.i.i6:                                     ; preds = %if.then.i3
  %vtable.i.i.i7 = load ptr, ptr %4, align 8
  %vfn.i.i.i8 = getelementptr inbounds i8, ptr %vtable.i.i.i7, i64 8
  %6 = load ptr, ptr %vfn.i.i.i8, align 8
  call void %6(ptr noundef nonnull align 8 dereferenceable(217) %4) #17
  br label %_ZN9grpc_core13RefCountedPtrI28grpc_tls_credentials_optionsED2Ev.exit9

_ZN9grpc_core13RefCountedPtrI28grpc_tls_credentials_optionsED2Ev.exit9: ; preds = %lpad2, %if.then.i3, %if.then.i.i6
  call void @_ZdlPv(ptr noundef nonnull %call1) #18
  resume { ptr, i32 } %3

return:                                           ; preds = %if.then.i.i, %if.then.i, %invoke.cont3, %entry
  %retval.0 = phi ptr [ null, %entry ], [ %call1, %invoke.cont3 ], [ %call1, %if.then.i ], [ %call1, %if.then.i.i ]
  ret ptr %retval.0
}